; Function Attrs: null_pointer_is_valid sspstrong uwtable
define ptr @find_conversation_deinterlacer(i32 noundef %0, ptr noundef readonly captures(none) %1, ptr noundef readonly captures(none) %2, i32 noundef %3, i32 noundef %4, i32 noundef %5, i32 noundef %6) local_unnamed_addr #0 {
  %8 = alloca [6 x %struct.conversation_element], align 16
  %9 = alloca [6 x %struct.conversation_element], align 16
  call void @llvm.lifetime.start.p0(i64 192, ptr nonnull %9) #15
  store i32 1, ptr %9, align 16
  %10 = getelementptr inbounds nuw i8, ptr %9, i64 4
  store i32 0, ptr %10, align 4
  %11 = getelementptr inbounds nuw i8, ptr %9, i64 8
  call void @llvm.memcpy.p0.p0.i64(ptr noundef nonnull align 8 dereferenceable(24) %11, ptr noundef readonly align 8 dereferenceable(24) %1, i64 24, i1 false)
  %12 = getelementptr inbounds nuw i8, ptr %9, i64 32
  store i32 1, ptr %12, align 16
  %13 = getelementptr inbounds nuw i8, ptr %9, i64 36
  store i32 0, ptr %13, align 4
  %14 = getelementptr inbounds nuw i8, ptr %9, i64 40
  call void @llvm.memcpy.p0.p0.i64(ptr noundef nonnull align 8 dereferenceable(24) %14, ptr noundef readonly align 8 dereferenceable(24) %2, i64 24, i1 false)
  %15 = getelementptr inbounds nuw i8, ptr %9, i64 64
  call void @llvm.memset.p0.i64(ptr noundef nonnull align 16 dereferenceable(32) %15, i8 0, i64 32, i1 false)
  store i32 4, ptr %15, align 16
  %16 = getelementptr inbounds nuw i8, ptr %9, i64 72
  store i32 %4, ptr %16, align 8
  %17 = getelementptr inbounds nuw i8, ptr %9, i64 96
  call void @llvm.memset.p0.i64(ptr noundef nonnull align 16 dereferenceable(32) %17, i8 0, i64 32, i1 false)
  store i32 4, ptr %17, align 16
  %18 = getelementptr inbounds nuw i8, ptr %9, i64 104
  store i32 %5, ptr %18, align 8
  %19 = getelementptr inbounds nuw i8, ptr %9, i64 128
  call void @llvm.memset.p0.i64(ptr noundef nonnull align 16 dereferenceable(32) %19, i8 0, i64 32, i1 false)
  store i32 4, ptr %19, align 16
  %20 = getelementptr inbounds nuw i8, ptr %9, i64 136
  store i32 %6, ptr %20, align 8
  %21 = getelementptr inbounds nuw i8, ptr %9, i64 160
  %22 = getelementptr inbounds nuw i8, ptr %9, i64 168
  call void @llvm.memset.p0.i64(ptr noundef nonnull align 16 dereferenceable(32) %21, i8 0, i64 32, i1 false)
  store i32 %3, ptr %22, align 8
  %23 = load ptr, ptr @conversation_hashtable_deinterlacer, align 8
  %24 = call ptr @wmem_map_lookup(ptr noundef %23, ptr noundef nonnull %9)
  %.not.i.i = icmp eq ptr %24, null
  br i1 %.not.i.i, label %conversation_lookup_deinterlacer.exit, label %25

25:                                               ; preds = %7
  %26 = getelementptr inbounds nuw i8, ptr %24, i64 28
  %27 = load i32, ptr %26, align 4
  %.not33.i.i = icmp ugt i32 %27, %0
  br i1 %.not33.i.i, label %conversation_lookup_deinterlacer.exit, label %28

28:                                               ; preds = %25
  %29 = getelementptr inbounds nuw i8, ptr %24, i64 8
  %30 = load ptr, ptr %29, align 8
  %.not34.i.i = icmp eq ptr %30, null
  br i1 %.not34.i.i, label %34, label %31

31:                                               ; preds = %28
  %32 = getelementptr inbounds nuw i8, ptr %30, i64 28
  %33 = load i32, ptr %32, align 4
  %.not35.i.i = icmp ugt i32 %33, %0
  br i1 %.not35.i.i, label %34, label %conversation_lookup_deinterlacer.exit

34:                                               ; preds = %31, %28
  %35 = getelementptr inbounds nuw i8, ptr %24, i64 16
  %36 = load ptr, ptr %35, align 8
  %.not36.i.i = icmp eq ptr %36, null
  br i1 %.not36.i.i, label %.preheader43, label %37

37:                                               ; preds = %34
  %38 = getelementptr inbounds nuw i8, ptr %36, i64 28
  %39 = load i32, ptr %38, align 4
  %.not37.i.i = icmp ugt i32 %39, %0
  %spec.select.i.i = select i1 %.not37.i.i, ptr %24, ptr %36
  br label %.preheader43

.preheader43:                                     ; preds = %37, %34
  %.02644.i.i.ph = phi ptr [ %spec.select.i.i, %37 ], [ %24, %34 ]
  br label %40

40:                                               ; preds = %.preheader43, %43
  %.245.i.i = phi ptr [ %spec.select41.i.i, %43 ], [ %.02644.i.i.ph, %.preheader43 ]
  %.02644.i.i = phi ptr [ %47, %43 ], [ %.02644.i.i.ph, %.preheader43 ]
  %41 = getelementptr inbounds nuw i8, ptr %.02644.i.i, i64 28
  %42 = load i32, ptr %41, align 4
  %.not39.i.i = icmp ugt i32 %42, %0
  br i1 %.not39.i.i, label %.critedge.i.i, label %43

43:                                               ; preds = %40
  %44 = getelementptr inbounds nuw i8, ptr %.245.i.i, i64 28
  %45 = load i32, ptr %44, align 4
  %46 = icmp ugt i32 %42, %45
  %spec.select41.i.i = select i1 %46, ptr %.02644.i.i, ptr %.245.i.i
  %47 = load ptr, ptr %.02644.i.i, align 8
  %.not38.i.i = icmp eq ptr %47, null
  br i1 %.not38.i.i, label %.critedge.i.i, label %40, !llvm.loop !13

.critedge.i.i:                                    ; preds = %43, %40
  %.2.lcssa.i.i = phi ptr [ %.245.i.i, %40 ], [ %spec.select41.i.i, %43 ]
  %.not40.i.i = icmp eq ptr %.2.lcssa.i.i, null
  br i1 %.not40.i.i, label %conversation_lookup_deinterlacer.exit, label %48

48:                                               ; preds = %.critedge.i.i
  store ptr %.2.lcssa.i.i, ptr %35, align 8
  br label %conversation_lookup_deinterlacer.exit

conversation_lookup_deinterlacer.exit:            ; preds = %7, %25, %31, %.critedge.i.i, %48
  %.027.i.i = phi ptr [ %30, %31 ], [ %.2.lcssa.i.i, %48 ], [ null, %.critedge.i.i ], [ null, %25 ], [ null, %7 ]
  call void @llvm.lifetime.end.p0(i64 192, ptr nonnull %9) #15
  call void @llvm.lifetime.start.p0(i64 192, ptr nonnull %8) #15
  store i32 1, ptr %8, align 16
  %49 = getelementptr inbounds nuw i8, ptr %8, i64 4
  store i32 0, ptr %49, align 4
  %50 = getelementptr inbounds nuw i8, ptr %8, i64 8
  call void @llvm.memcpy.p0.p0.i64(ptr noundef nonnull align 8 dereferenceable(24) %50, ptr noundef readonly align 8 dereferenceable(24) %2, i64 24, i1 false)
  %51 = getelementptr inbounds nuw i8, ptr %8, i64 32
  store i32 1, ptr %51, align 16
  %52 = getelementptr inbounds nuw i8, ptr %8, i64 36
  store i32 0, ptr %52, align 4
  %53 = getelementptr inbounds nuw i8, ptr %8, i64 40
  call void @llvm.memcpy.p0.p0.i64(ptr noundef nonnull align 8 dereferenceable(24) %53, ptr noundef readonly align 8 dereferenceable(24) %1, i64 24, i1 false)
  %54 = getelementptr inbounds nuw i8, ptr %8, i64 64
  call void @llvm.memset.p0.i64(ptr noundef nonnull align 16 dereferenceable(32) %54, i8 0, i64 32, i1 false)
  store i32 4, ptr %54, align 16
  %55 = getelementptr inbounds nuw i8, ptr %8, i64 72
  store i32 %4, ptr %55, align 8
  %56 = getelementptr inbounds nuw i8, ptr %8, i64 96
  call void @llvm.memset.p0.i64(ptr noundef nonnull align 16 dereferenceable(32) %56, i8 0, i64 32, i1 false)
  store i32 4, ptr %56, align 16
  %57 = getelementptr inbounds nuw i8, ptr %8, i64 104
  store i32 %5, ptr %57, align 8
  %58 = getelementptr inbounds nuw i8, ptr %8, i64 128
  call void @llvm.memset.p0.i64(ptr noundef nonnull align 16 dereferenceable(32) %58, i8 0, i64 32, i1 false)
  store i32 4, ptr %58, align 16
  %59 = getelementptr inbounds nuw i8, ptr %8, i64 136
  store i32 %6, ptr %59, align 8
  %60 = getelementptr inbounds nuw i8, ptr %8, i64 160
  %61 = getelementptr inbounds nuw i8, ptr %8, i64 168
  call void @llvm.memset.p0.i64(ptr noundef nonnull align 16 dereferenceable(32) %60, i8 0, i64 32, i1 false)
  store i32 %3, ptr %61, align 8
  %62 = load ptr, ptr @conversation_hashtable_deinterlacer, align 8
  %63 = call ptr @wmem_map_lookup(ptr noundef %62, ptr noundef nonnull %8)
  %.not.i.i23 = icmp eq ptr %63, null
  br i1 %.not.i.i23, label %conversation_lookup_deinterlacer.exit40.thread, label %64

64:                                               ; preds = %conversation_lookup_deinterlacer.exit
  %65 = getelementptr inbounds nuw i8, ptr %63, i64 28
  %66 = load i32, ptr %65, align 4
  %.not33.i.i24 = icmp ugt i32 %66, %0
  br i1 %.not33.i.i24, label %conversation_lookup_deinterlacer.exit40.thread, label %67

67:                                               ; preds = %64
  %68 = getelementptr inbounds nuw i8, ptr %63, i64 8
  %69 = load ptr, ptr %68, align 8
  %.not34.i.i25 = icmp eq ptr %69, null
  br i1 %.not34.i.i25, label %73, label %70

70:                                               ; preds = %67
  %71 = getelementptr inbounds nuw i8, ptr %69, i64 28
  %72 = load i32, ptr %71, align 4
  %.not35.i.i26 = icmp ugt i32 %72, %0
  br i1 %.not35.i.i26, label %73, label %88

73:                                               ; preds = %70, %67
  %74 = getelementptr inbounds nuw i8, ptr %63, i64 16
  %75 = load ptr, ptr %74, align 8
  %.not36.i.i28 = icmp eq ptr %75, null
  br i1 %.not36.i.i28, label %.preheader, label %76

76:                                               ; preds = %73
  %77 = getelementptr inbounds nuw i8, ptr %75, i64 28
  %78 = load i32, ptr %77, align 4
  %.not37.i.i29 = icmp ugt i32 %78, %0
  %spec.select.i.i30 = select i1 %.not37.i.i29, ptr %63, ptr %75
  br label %.preheader

.preheader:                                       ; preds = %76, %73
  %.02644.i.i33.ph = phi ptr [ %spec.select.i.i30, %76 ], [ %63, %73 ]
  br label %79

79:                                               ; preds = %.preheader, %82
  %.245.i.i32 = phi ptr [ %spec.select41.i.i35, %82 ], [ %.02644.i.i33.ph, %.preheader ]
  %.02644.i.i33 = phi ptr [ %86, %82 ], [ %.02644.i.i33.ph, %.preheader ]
  %80 = getelementptr inbounds nuw i8, ptr %.02644.i.i33, i64 28
  %81 = load i32, ptr %80, align 4
  %.not39.i.i34 = icmp ugt i32 %81, %0
  br i1 %.not39.i.i34, label %.critedge.i.i37, label %82

82:                                               ; preds = %79
  %83 = getelementptr inbounds nuw i8, ptr %.245.i.i32, i64 28
  %84 = load i32, ptr %83, align 4
  %85 = icmp ugt i32 %81, %84
  %spec.select41.i.i35 = select i1 %85, ptr %.02644.i.i33, ptr %.245.i.i32
  %86 = load ptr, ptr %.02644.i.i33, align 8
  %.not38.i.i36 = icmp eq ptr %86, null
  br i1 %.not38.i.i36, label %.critedge.i.i37, label %79, !llvm.loop !13

.critedge.i.i37:                                  ; preds = %82, %79
  %.2.lcssa.i.i38 = phi ptr [ %.245.i.i32, %79 ], [ %spec.select41.i.i35, %82 ]
  %.not40.i.i39 = icmp eq ptr %.2.lcssa.i.i38, null
  br i1 %.not40.i.i39, label %conversation_lookup_deinterlacer.exit40.thread, label %87

87:                                               ; preds = %.critedge.i.i37
  store ptr %.2.lcssa.i.i38, ptr %74, align 8
  br label %88

conversation_lookup_deinterlacer.exit40.thread:   ; preds = %.critedge.i.i37, %64, %conversation_lookup_deinterlacer.exit
  call void @llvm.lifetime.end.p0(i64 192, ptr nonnull %8) #15
  br label %95

88:                                               ; preds = %87, %70
  %.027.i.i27 = phi ptr [ %69, %70 ], [ %.2.lcssa.i.i38, %87 ]
  call void @llvm.lifetime.end.p0(i64 192, ptr nonnull %8) #15
  %.not22 = icmp eq ptr %.027.i.i, null
  br i1 %.not22, label %95, label %89

89:                                               ; preds = %88
  %90 = getelementptr inbounds nuw i8, ptr %.027.i.i27, i64 24
  %91 = load i32, ptr %90, align 8
  %92 = getelementptr inbounds nuw i8, ptr %.027.i.i, i64 24
  %93 = load i32, ptr %92, align 8
  %94 = icmp ugt i32 %91, %93
  %spec.select = select i1 %94, ptr %.027.i.i27, ptr %.027.i.i
  br label %95

95:                                               ; preds = %conversation_lookup_deinterlacer.exit40.thread, %89, %88
  %.0 = phi ptr [ %spec.select, %89 ], [ %.027.i.i27, %88 ], [ %.027.i.i, %conversation_lookup_deinterlacer.exit40.thread ]
  ret ptr %.0
}